; Function Attrs: nounwind uwtable
define dso_local range(i32 0, 2) i32 @luaL_callmeta(ptr noundef %0, i32 noundef %1, ptr noundef %2) local_unnamed_addr #1 {
  %4 = tail call i32 @lua_getmetatable(ptr noundef %0, i32 noundef %1)
  %.not.i = icmp eq i32 %4, 0
  br i1 %.not.i, label %luaL_getmetafield.exit.thread, label %5

5:                                                ; preds = %3
  %6 = getelementptr inbounds nuw i8, ptr %0, i64 40
  %7 = load ptr, ptr %6, align 8, !tbaa !14
  %8 = getelementptr inbounds i8, ptr %7, i64 -8
  %9 = load i64, ptr %8, align 8, !tbaa !17
  %10 = and i64 %9, 140737488355327
  %11 = inttoptr i64 %10 to ptr
  %12 = tail call i64 @strlen(ptr noundef nonnull dereferenceable(1) %2) #15
  %13 = tail call ptr @lj_str_new(ptr noundef %0, ptr noundef nonnull %2, i64 noundef %12) #13
  %14 = tail call ptr @lj_tab_getstr(ptr noundef %11, ptr noundef %13) #13
  %.not15.i = icmp eq ptr %14, null
  br i1 %.not15.i, label %.thread.i, label %15

15:                                               ; preds = %5
  %16 = load i64, ptr %14, align 8, !tbaa !17
  %17 = icmp eq i64 %16, -1
  br i1 %17, label %.thread.i, label %20

.thread.i:                                        ; preds = %15, %5
  %18 = load ptr, ptr %6, align 8, !tbaa !14
  %19 = getelementptr inbounds i8, ptr %18, i64 -8
  store ptr %19, ptr %6, align 8, !tbaa !14
  br label %luaL_getmetafield.exit.thread

20:                                               ; preds = %15
  %21 = load ptr, ptr %6, align 8, !tbaa !14
  %22 = getelementptr inbounds i8, ptr %21, i64 -8
  store i64 %16, ptr %22, align 8, !tbaa !17
  %23 = load ptr, ptr %6, align 8, !tbaa !14
  %24 = getelementptr inbounds i8, ptr %23, i64 -8
  store ptr %24, ptr %6, align 8, !tbaa !14
  %25 = getelementptr inbounds nuw i8, ptr %23, i64 8
  store i64 -1, ptr %23, align 8, !tbaa !17
  %26 = getelementptr inbounds nuw i8, ptr %23, i64 16
  %27 = icmp sgt i32 %1, 0
  br i1 %27, label %28, label %41

28:                                               ; preds = %20
  %29 = getelementptr inbounds nuw i8, ptr %0, i64 32
  %30 = load ptr, ptr %29, align 8, !tbaa !15
  %31 = zext nneg i32 %1 to i64
  %32 = getelementptr %union.TValue, ptr %30, i64 %31
  %33 = getelementptr i8, ptr %32, i64 -8
  %34 = load ptr, ptr %6, align 8, !tbaa !14
  %35 = icmp ult ptr %33, %34
  br i1 %35, label %index2adr.exit, label %36

36:                                               ; preds = %28
  %37 = getelementptr inbounds nuw i8, ptr %0, i64 16
  %38 = load i64, ptr %37, align 8, !tbaa !21
  %39 = inttoptr i64 %38 to ptr
  %40 = getelementptr inbounds nuw i8, ptr %39, i64 248
  br label %index2adr.exit

41:                                               ; preds = %20
  %42 = icmp sgt i32 %1, -10000
  br i1 %42, label %43, label %47

43:                                               ; preds = %41
  %44 = load ptr, ptr %6, align 8, !tbaa !14
  %45 = sext i32 %1 to i64
  %46 = getelementptr inbounds %union.TValue, ptr %44, i64 %45
  br label %index2adr.exit

47:                                               ; preds = %41
  switch i32 %1, label %61 [
    i32 -10002, label %48
    i32 -10000, label %56
  ]

48:                                               ; preds = %47
  %49 = getelementptr inbounds nuw i8, ptr %0, i64 16
  %50 = load i64, ptr %49, align 8, !tbaa !21
  %51 = inttoptr i64 %50 to ptr
  %52 = getelementptr inbounds nuw i8, ptr %51, i64 232
  %53 = getelementptr inbounds nuw i8, ptr %0, i64 72
  %54 = load i64, ptr %53, align 8, !tbaa !24
  %55 = or i64 %54, -1688849860263936
  store i64 %55, ptr %52, align 8, !tbaa !17
  br label %index2adr.exit

56:                                               ; preds = %47
  %57 = getelementptr inbounds nuw i8, ptr %0, i64 16
  %58 = load i64, ptr %57, align 8, !tbaa !21
  %59 = inttoptr i64 %58 to ptr
  %60 = getelementptr inbounds nuw i8, ptr %59, i64 272
  br label %index2adr.exit

61:                                               ; preds = %47
  %62 = getelementptr inbounds nuw i8, ptr %0, i64 32
  %63 = load ptr, ptr %62, align 8, !tbaa !15
  %64 = getelementptr inbounds i8, ptr %63, i64 -16
  %65 = load i64, ptr %64, align 8, !tbaa !17
  %66 = and i64 %65, 140737488355327
  %67 = inttoptr i64 %66 to ptr
  %68 = icmp eq i32 %1, -10001
  br i1 %68, label %69, label %77

69:                                               ; preds = %61
  %70 = getelementptr inbounds nuw i8, ptr %0, i64 16
  %71 = load i64, ptr %70, align 8, !tbaa !21
  %72 = inttoptr i64 %71 to ptr
  %73 = getelementptr inbounds nuw i8, ptr %72, i64 232
  %74 = getelementptr inbounds nuw i8, ptr %67, i64 16
  %75 = load i64, ptr %74, align 8, !tbaa !17
  %76 = or i64 %75, -1688849860263936
  store i64 %76, ptr %73, align 8, !tbaa !17
  br label %index2adr.exit

77:                                               ; preds = %61
  %78 = sub nuw nsw i32 -10002, %1
  %79 = getelementptr inbounds nuw i8, ptr %67, i64 11
  %80 = load i8, ptr %79, align 1, !tbaa !17
  %81 = zext i8 %80 to i32
  %.not.i13 = icmp samesign ugt i32 %78, %81
  br i1 %.not.i13, label %87, label %82

82:                                               ; preds = %77
  %83 = getelementptr inbounds nuw i8, ptr %67, i64 48
  %84 = sub nsw i32 -10003, %1
  %85 = sext i32 %84 to i64
  %86 = getelementptr inbounds [1 x %union.TValue], ptr %83, i64 0, i64 %85
  br label %index2adr.exit

87:                                               ; preds = %77
  %88 = getelementptr inbounds nuw i8, ptr %0, i64 16
  %89 = load i64, ptr %88, align 8, !tbaa !21
  %90 = inttoptr i64 %89 to ptr
  %91 = getelementptr inbounds nuw i8, ptr %90, i64 248
  br label %index2adr.exit

index2adr.exit:                                   ; preds = %28, %36, %43, %48, %56, %69, %82, %87
  %.0.i = phi ptr [ %46, %43 ], [ %52, %48 ], [ %60, %56 ], [ %40, %36 ], [ %33, %28 ], [ %73, %69 ], [ %86, %82 ], [ %91, %87 ]
  %92 = load i64, ptr %.0.i, align 8, !tbaa !17
  store i64 %92, ptr %25, align 8, !tbaa !17
  store ptr %26, ptr %6, align 8, !tbaa !14
  tail call void @lj_vm_call(ptr noundef nonnull %0, ptr noundef nonnull %25, i32 noundef 2) #13
  br label %luaL_getmetafield.exit.thread

luaL_getmetafield.exit.thread:                    ; preds = %3, %.thread.i, %index2adr.exit
  %.0 = phi i32 [ 1, %index2adr.exit ], [ 0, %.thread.i ], [ 0, %3 ]
  ret i32 %.0
}